; Function Attrs: nounwind uwtable
define internal i64 @proxy_nw_in_reader(ptr noundef %0, ptr noundef %1, i64 noundef %2, ptr noundef %3) #0 {
  %.not = icmp eq ptr %0, null
  br i1 %.not, label %31, label %5

5:                                                ; preds = %4
  %6 = getelementptr inbounds nuw i8, ptr %0, i64 16
  %7 = load ptr, ptr %6, align 8, !tbaa !4
  %8 = getelementptr inbounds nuw i8, ptr %7, i64 8
  %9 = load ptr, ptr %8, align 8, !tbaa !34
  %10 = getelementptr inbounds nuw i8, ptr %0, i64 8
  %11 = load ptr, ptr %10, align 8, !tbaa !31
  %12 = tail call i64 @Curl_conn_cf_recv(ptr noundef %11, ptr noundef %9, ptr noundef %1, i64 noundef %2, ptr noundef %3) #7
  %.not24 = icmp eq ptr %9, null
  br i1 %.not24, label %31, label %13

13:                                               ; preds = %5
  %14 = getelementptr inbounds nuw i8, ptr %9, i64 2562
  %15 = load i64, ptr %14, align 2
  %16 = and i64 %15, 134217728
  %.not25 = icmp eq i64 %16, 0
  br i1 %.not25, label %31, label %17

17:                                               ; preds = %13
  %18 = getelementptr inbounds nuw i8, ptr %9, i64 4712
  %19 = load ptr, ptr %18, align 8, !tbaa !108
  %.not26 = icmp eq ptr %19, null
  br i1 %.not26, label %24, label %20

20:                                               ; preds = %17
  %21 = getelementptr inbounds nuw i8, ptr %19, i64 8
  %22 = load i32, ptr %21, align 8, !tbaa !109
  %23 = icmp sgt i32 %22, 0
  br i1 %23, label %24, label %31

24:                                               ; preds = %17, %20
  %25 = load ptr, ptr %0, align 8, !tbaa !111
  %26 = getelementptr inbounds nuw i8, ptr %25, i64 12
  %27 = load i32, ptr %26, align 4, !tbaa !112
  %28 = icmp sgt i32 %27, 0
  br i1 %28, label %29, label %31

29:                                               ; preds = %24
  %30 = load i32, ptr %3, align 4, !tbaa !40
  tail call void (ptr, ptr, ptr, ...) @Curl_trc_cf_infof(ptr noundef nonnull %9, ptr noundef nonnull %0, ptr noundef nonnull @.str.53, i64 noundef %2, i64 noundef %12, i32 noundef %30) #7
  br label %31

31:                                               ; preds = %4, %5, %13, %20, %24, %29
  %.0 = phi i64 [ %12, %29 ], [ %12, %24 ], [ %12, %20 ], [ %12, %13 ], [ %12, %5 ], [ 0, %4 ]
  ret i64 %.0
}